; ModuleID = '9/1580.c'
source_filename = "9/1580.c"
target datalayout = "e-m:e-p270:32:32-p271:32:32-p272:64:64-i64:64-f80:128-n8:16:32:64-S128"
target triple = "x86_64-pc-linux-gnu"

%struct.patient = type { [20 x i8], i32 }

@.str = private unnamed_addr constant [3 x i8] c"%d\00", align 1
@.str.1 = private unnamed_addr constant [6 x i8] c"%s %d\00", align 1
@.str.2 = private unnamed_addr constant [4 x i8] c"%s\0A\00", align 1

; Function Attrs: noinline nounwind uwtable
define dso_local i32 @main() #0 {
  %1 = alloca i32, align 4
  %2 = alloca i32, align 4
  %3 = alloca i32, align 4
  %4 = alloca i32, align 4
  %5 = alloca i32, align 4
  %6 = alloca i32, align 4
  %7 = alloca i32, align 4
  %8 = alloca [100 x %struct.patient], align 16
  %9 = alloca [100 x %struct.patient], align 16
  %10 = alloca [100 x i8], align 16
  %11 = alloca [100 x i8], align 16
  store i32 0, i32* %1, align 4
  %12 = bitcast [100 x i8]* %10 to i8*
  call void @llvm.memset.p0i8.i64(i8* align 16 %12, i8 0, i64 100, i1 false)
  %13 = bitcast [100 x i8]* %11 to i8*
  call void @llvm.memset.p0i8.i64(i8* align 16 %13, i8 0, i64 100, i1 false)
  %14 = call i32 (i8*, ...) @__isoc99_scanf(i8* getelementptr inbounds ([3 x i8], [3 x i8]* @.str, i64 0, i64 0), i32* %2)
  store i32 0, i32* %3, align 4
  store i32 0, i32* %7, align 4
  store i32 0, i32* %5, align 4
  br label %15

15:                                               ; preds = %61, %0
  %16 = load i32, i32* %5, align 4
  %17 = load i32, i32* %2, align 4
  %18 = icmp sle i32 %16, %17
  br i1 %18, label %19, label %62

19:                                               ; preds = %15
  store i32 0, i32* %6, align 4
  %20 = getelementptr inbounds [100 x i8], [100 x i8]* %10, i64 0, i64 0
  %21 = getelementptr inbounds [100 x i8], [100 x i8]* %11, i64 0, i64 0
  %22 = call i8* @strcpy(i8* %20, i8* %21) #4
  %23 = getelementptr inbounds [100 x i8], [100 x i8]* %10, i64 0, i64 0
  %24 = call i32 (i8*, ...) @__isoc99_scanf(i8* getelementptr inbounds ([6 x i8], [6 x i8]* @.str.1, i64 0, i64 0), i8* %23, i32* %6)
  %25 = load i32, i32* %6, align 4
  %26 = icmp sge i32 %25, 60
  br i1 %26, label %27, label %44

27:                                               ; preds = %19
  %28 = load i32, i32* %3, align 4
  %29 = sext i32 %28 to i64
  %30 = getelementptr inbounds [100 x %struct.patient], [100 x %struct.patient]* %8, i64 0, i64 %29
  %31 = getelementptr inbounds %struct.patient, %struct.patient* %30, i32 0, i32 0
  %32 = getelementptr inbounds [20 x i8], [20 x i8]* %31, i64 0, i64 0
  %33 = getelementptr inbounds [100 x i8], [100 x i8]* %10, i64 0, i64 0
  %34 = call i8* @strcpy(i8* %32, i8* %33) #4
  %35 = load i32, i32* %6, align 4
  %36 = load i32, i32* %3, align 4
  %37 = sext i32 %36 to i64
  %38 = getelementptr inbounds [100 x %struct.patient], [100 x %struct.patient]* %8, i64 0, i64 %37
  %39 = getelementptr inbounds %struct.patient, %struct.patient* %38, i32 0, i32 1
  store i32 %35, i32* %39, align 4
  %40 = load i32, i32* %3, align 4
  %41 = add nsw i32 %40, 1
  store i32 %41, i32* %3, align 4
  %42 = load i32, i32* %5, align 4
  %43 = add nsw i32 %42, 1
  store i32 %43, i32* %5, align 4
  br label %61

44:                                               ; preds = %19
  %45 = load i32, i32* %7, align 4
  %46 = sext i32 %45 to i64
  %47 = getelementptr inbounds [100 x %struct.patient], [100 x %struct.patient]* %9, i64 0, i64 %46
  %48 = getelementptr inbounds %struct.patient, %struct.patient* %47, i32 0, i32 0
  %49 = getelementptr inbounds [20 x i8], [20 x i8]* %48, i64 0, i64 0
  %50 = getelementptr inbounds [100 x i8], [100 x i8]* %10, i64 0, i64 0
  %51 = call i8* @strcpy(i8* %49, i8* %50) #4
  %52 = load i32, i32* %6, align 4
  %53 = load i32, i32* %7, align 4
  %54 = sext i32 %53 to i64
  %55 = getelementptr inbounds [100 x %struct.patient], [100 x %struct.patient]* %9, i64 0, i64 %54
  %56 = getelementptr inbounds %struct.patient, %struct.patient* %55, i32 0, i32 1
  store i32 %52, i32* %56, align 4
  %57 = load i32, i32* %7, align 4
  %58 = add nsw i32 %57, 1
  store i32 %58, i32* %7, align 4
  %59 = load i32, i32* %5, align 4
  %60 = add nsw i32 %59, 1
  store i32 %60, i32* %5, align 4
  br label %61

61:                                               ; preds = %44, %27
  br label %15

62:                                               ; preds = %15
  %63 = getelementptr inbounds [100 x %struct.patient], [100 x %struct.patient]* %8, i64 0, i64 0
  %64 = load i32, i32* %3, align 4
  call void @bubble(%struct.patient* %63, i32 %64)
  %65 = load i32, i32* %3, align 4
  store i32 %65, i32* %4, align 4
  store i32 0, i32* %3, align 4
  br label %66

66:                                               ; preds = %77, %62
  %67 = load i32, i32* %3, align 4
  %68 = load i32, i32* %4, align 4
  %69 = icmp slt i32 %67, %68
  br i1 %69, label %70, label %80

70:                                               ; preds = %66
  %71 = load i32, i32* %3, align 4
  %72 = sext i32 %71 to i64
  %73 = getelementptr inbounds [100 x %struct.patient], [100 x %struct.patient]* %8, i64 0, i64 %72
  %74 = getelementptr inbounds %struct.patient, %struct.patient* %73, i32 0, i32 0
  %75 = getelementptr inbounds [20 x i8], [20 x i8]* %74, i64 0, i64 0
  %76 = call i32 (i8*, ...) @printf(i8* getelementptr inbounds ([4 x i8], [4 x i8]* @.str.2, i64 0, i64 0), i8* %75)
  br label %77

77:                                               ; preds = %70
  %78 = load i32, i32* %3, align 4
  %79 = add nsw i32 %78, 1
  store i32 %79, i32* %3, align 4
  br label %66

80:                                               ; preds = %66
  store i32 0, i32* %3, align 4
  br label %81

81:                                               ; preds = %92, %80
  %82 = load i32, i32* %3, align 4
  %83 = load i32, i32* %7, align 4
  %84 = icmp slt i32 %82, %83
  br i1 %84, label %85, label %95

85:                                               ; preds = %81
  %86 = load i32, i32* %3, align 4
  %87 = sext i32 %86 to i64
  %88 = getelementptr inbounds [100 x %struct.patient], [100 x %struct.patient]* %9, i64 0, i64 %87
  %89 = getelementptr inbounds %struct.patient, %struct.patient* %88, i32 0, i32 0
  %90 = getelementptr inbounds [20 x i8], [20 x i8]* %89, i64 0, i64 0
  %91 = call i32 (i8*, ...) @printf(i8* getelementptr inbounds ([4 x i8], [4 x i8]* @.str.2, i64 0, i64 0), i8* %90)
  br label %92

92:                                               ; preds = %85
  %93 = load i32, i32* %3, align 4
  %94 = add nsw i32 %93, 1
  store i32 %94, i32* %3, align 4
  br label %81

95:                                               ; preds = %81
  ret i32 0
}

; Function Attrs: argmemonly nounwind willreturn
declare void @llvm.memset.p0i8.i64(i8* nocapture writeonly, i8, i64, i1 immarg) #1

declare dso_local i32 @__isoc99_scanf(i8*, ...) #2

; Function Attrs: nounwind
declare dso_local i8* @strcpy(i8*, i8*) #3

; Function Attrs: noinline nounwind uwtable
define dso_local void @bubble(%struct.patient* %0, i32 %1) #0 {
  %3 = alloca %struct.patient*, align 8
  %4 = alloca i32, align 4
  %5 = alloca i32, align 4
  %6 = alloca i32, align 4
  %7 = alloca %struct.patient, align 4
  store %struct.patient* %0, %struct.patient** %3, align 8
  store i32 %1, i32* %4, align 4
  store i32 1, i32* %6, align 4
  br label %8

8:                                                ; preds = %64, %2
  %9 = load i32, i32* %6, align 4
  %10 = load i32, i32* %4, align 4
  %11 = icmp slt i32 %9, %10
  br i1 %11, label %12, label %67

12:                                               ; preds = %8
  store i32 0, i32* %5, align 4
  br label %13

13:                                               ; preds = %60, %12
  %14 = load i32, i32* %5, align 4
  %15 = load i32, i32* %4, align 4
  %16 = load i32, i32* %6, align 4
  %17 = sub nsw i32 %15, %16
  %18 = icmp slt i32 %14, %17
  br i1 %18, label %19, label %63

19:                                               ; preds = %13
  %20 = load %struct.patient*, %struct.patient** %3, align 8
  %21 = load i32, i32* %5, align 4
  %22 = sext i32 %21 to i64
  %23 = getelementptr inbounds %struct.patient, %struct.patient* %20, i64 %22
  %24 = getelementptr inbounds %struct.patient, %struct.patient* %23, i32 0, i32 1
  %25 = load i32, i32* %24, align 4
  %26 = load %struct.patient*, %struct.patient** %3, align 8
  %27 = load i32, i32* %5, align 4
  %28 = add nsw i32 %27, 1
  %29 = sext i32 %28 to i64
  %30 = getelementptr inbounds %struct.patient, %struct.patient* %26, i64 %29
  %31 = getelementptr inbounds %struct.patient, %struct.patient* %30, i32 0, i32 1
  %32 = load i32, i32* %31, align 4
  %33 = icmp slt i32 %25, %32
  br i1 %33, label %34, label %59

34:                                               ; preds = %19
  %35 = load %struct.patient*, %struct.patient** %3, align 8
  %36 = load i32, i32* %5, align 4
  %37 = sext i32 %36 to i64
  %38 = getelementptr inbounds %struct.patient, %struct.patient* %35, i64 %37
  %39 = bitcast %struct.patient* %7 to i8*
  %40 = bitcast %struct.patient* %38 to i8*
  call void @llvm.memcpy.p0i8.p0i8.i64(i8* align 4 %39, i8* align 4 %40, i64 24, i1 false)
  %41 = load %struct.patient*, %struct.patient** %3, align 8
  %42 = load i32, i32* %5, align 4
  %43 = sext i32 %42 to i64
  %44 = getelementptr inbounds %struct.patient, %struct.patient* %41, i64 %43
  %45 = load %struct.patient*, %struct.patient** %3, align 8
  %46 = load i32, i32* %5, align 4
  %47 = add nsw i32 %46, 1
  %48 = sext i32 %47 to i64
  %49 = getelementptr inbounds %struct.patient, %struct.patient* %45, i64 %48
  %50 = bitcast %struct.patient* %44 to i8*
  %51 = bitcast %struct.patient* %49 to i8*
  call void @llvm.memcpy.p0i8.p0i8.i64(i8* align 4 %50, i8* align 4 %51, i64 24, i1 false)
  %52 = load %struct.patient*, %struct.patient** %3, align 8
  %53 = load i32, i32* %5, align 4
  %54 = add nsw i32 %53, 1
  %55 = sext i32 %54 to i64
  %56 = getelementptr inbounds %struct.patient, %struct.patient* %52, i64 %55
  %57 = bitcast %struct.patient* %56 to i8*
  %58 = bitcast %struct.patient* %7 to i8*
  call void @llvm.memcpy.p0i8.p0i8.i64(i8* align 4 %57, i8* align 4 %58, i64 24, i1 false)
  br label %59

59:                                               ; preds = %34, %19
  br label %60

60:                                               ; preds = %59
  %61 = load i32, i32* %5, align 4
  %62 = add nsw i32 %61, 1
  store i32 %62, i32* %5, align 4
  br label %13

63:                                               ; preds = %13
  br label %64

64:                                               ; preds = %63
  %65 = load i32, i32* %6, align 4
  %66 = add nsw i32 %65, 1
  store i32 %66, i32* %6, align 4
  br label %8

67:                                               ; preds = %8
  ret void
}

declare dso_local i32 @printf(i8*, ...) #2

; Function Attrs: argmemonly nounwind willreturn
declare void @llvm.memcpy.p0i8.p0i8.i64(i8* noalias nocapture writeonly, i8* noalias nocapture readonly, i64, i1 immarg) #1


!llvm.module.flags = !{!0}
!llvm.ident = !{!1}

!0 = !{i32 1, !"wchar_size", i32 4}
!1 = !{!"clang version 10.0.0-4ubuntu1 "}
